target datalayout = "e-m:e-p270:32:32-p271:32:32-p272:64:64-i64:64-i128:128-f80:128-n8:16:32:64-S128"
target triple = "x86_64-pc-linux-gnu"

%struct.Llb_Mgr_t_ = type { ptr, ptr, i32, ptr, ptr, i32, i32, i32, ptr }
%struct.Llb_Var_t_ = type { i32, i32, ptr }
%struct.Vec_Int_t_ = type { i32, i32, ptr }
%struct.Llb_Prt_t_ = type { i32, i32, ptr, ptr }

; Function Attrs: inlinehint nounwind uwtable
define internal i32 @Vec_IntEntry(ptr noundef %0, i32 noundef %1) #1 {
  %3 = alloca ptr, align 8
  %4 = alloca i32, align 4
  store ptr %0, ptr %3, align 8, !tbaa !21
  store i32 %1, ptr %4, align 4, !tbaa !50
  %5 = load ptr, ptr %3, align 8, !tbaa !21
  %6 = getelementptr inbounds nuw %struct.Vec_Int_t_, ptr %5, i32 0, i32 2
  %7 = load ptr, ptr %6, align 8, !tbaa !22
  %8 = load i32, ptr %4, align 4, !tbaa !50
  %9 = sext i32 %8 to i64
  %10 = getelementptr inbounds i32, ptr %7, i64 %9
  %11 = load i32, ptr %10, align 4, !tbaa !50
  ret i32 %11
}

; Function Attrs: inlinehint nounwind uwtable
define internal i32 @Vec_IntSize(ptr noundef %0) #1 {
  %2 = alloca ptr, align 8
  store ptr %0, ptr %2, align 8, !tbaa !21
  %3 = load ptr, ptr %2, align 8, !tbaa !21
  %4 = getelementptr inbounds nuw %struct.Vec_Int_t_, ptr %3, i32 0, i32 1
  %5 = load i32, ptr %4, align 4, !tbaa !53
  ret i32 %5
}

; Function Attrs: inlinehint nounwind uwtable
define internal ptr @Llb_MgrVar(ptr noundef %0, i32 noundef %1) #1 {
  %3 = alloca ptr, align 8
  %4 = alloca i32, align 4
  store ptr %0, ptr %3, align 8, !tbaa !3
  store i32 %1, ptr %4, align 4, !tbaa !50
  %5 = load ptr, ptr %3, align 8, !tbaa !3
  %6 = getelementptr inbounds nuw %struct.Llb_Mgr_t_, ptr %5, i32 0, i32 4
  %7 = load ptr, ptr %6, align 8, !tbaa !10
  %8 = load i32, ptr %4, align 4, !tbaa !50
  %9 = sext i32 %8 to i64
  %10 = getelementptr inbounds ptr, ptr %7, i64 %9
  %11 = load ptr, ptr %10, align 8, !tbaa !8
  ret ptr %11
}

; Function Attrs: inlinehint nounwind uwtable
define internal ptr @Llb_MgrPart(ptr noundef %0, i32 noundef %1) #1 {
  %3 = alloca ptr, align 8
  %4 = alloca i32, align 4
  store ptr %0, ptr %3, align 8, !tbaa !3
  store i32 %1, ptr %4, align 4, !tbaa !50
  %5 = load ptr, ptr %3, align 8, !tbaa !3
  %6 = getelementptr inbounds nuw %struct.Llb_Mgr_t_, ptr %5, i32 0, i32 3
  %7 = load ptr, ptr %6, align 8, !tbaa !26
  %8 = load i32, ptr %4, align 4, !tbaa !50
  %9 = sext i32 %8 to i64
  %10 = getelementptr inbounds ptr, ptr %7, i64 %9
  %11 = load ptr, ptr %10, align 8, !tbaa !24
  ret ptr %11
}

; Function Attrs: nounwind uwtable
define void @Llb_Nonlin4RecomputeScores(ptr noundef %0) #0 {
  %2 = alloca ptr, align 8
  %3 = alloca ptr, align 8
  %4 = alloca ptr, align 8
  %5 = alloca i32, align 4
  %6 = alloca i32, align 4
  store ptr %0, ptr %2, align 8, !tbaa !3
  call void @llvm.lifetime.start.p0(i64 8, ptr %3) #8
  call void @llvm.lifetime.start.p0(i64 8, ptr %4) #8
  call void @llvm.lifetime.start.p0(i64 4, ptr %5) #8
  call void @llvm.lifetime.start.p0(i64 4, ptr %6) #8
  store i32 0, ptr %5, align 4, !tbaa !50
  br label %7

7:                                                ; preds = %31, %1
  %8 = load i32, ptr %5, align 4, !tbaa !50
  %9 = load ptr, ptr %2, align 8, !tbaa !3
  %10 = getelementptr inbounds nuw %struct.Llb_Mgr_t_, ptr %9, i32 0, i32 5
  %11 = load i32, ptr %10, align 8, !tbaa !59
  %12 = icmp slt i32 %8, %11
  br i1 %12, label %13, label %17

13:                                               ; preds = %7
  %14 = load ptr, ptr %2, align 8, !tbaa !3
  %15 = load i32, ptr %5, align 4, !tbaa !50
  %16 = call ptr @Llb_MgrPart(ptr noundef %14, i32 noundef %15)
  store ptr %16, ptr %3, align 8, !tbaa !24
  br label %17

17:                                               ; preds = %13, %7
  %18 = phi i1 [ false, %7 ], [ true, %13 ]
  br i1 %18, label %19, label %34

19:                                               ; preds = %17
  %20 = load ptr, ptr %3, align 8, !tbaa !24
  %21 = icmp eq ptr %20, null
  br i1 %21, label %22, label %23

22:                                               ; preds = %19
  br label %30

23:                                               ; preds = %19
  %24 = load ptr, ptr %3, align 8, !tbaa !24
  %25 = getelementptr inbounds nuw %struct.Llb_Prt_t_, ptr %24, i32 0, i32 2
  %26 = load ptr, ptr %25, align 8, !tbaa !32
  %27 = call i32 @Cudd_DagSize(ptr noundef %26)
  %28 = load ptr, ptr %3, align 8, !tbaa !24
  %29 = getelementptr inbounds nuw %struct.Llb_Prt_t_, ptr %28, i32 0, i32 1
  store i32 %27, ptr %29, align 4, !tbaa !65
  br label %30

30:                                               ; preds = %23, %22
  br label %31

31:                                               ; preds = %30
  %32 = load i32, ptr %5, align 4, !tbaa !50
  %33 = add nsw i32 %32, 1
  store i32 %33, ptr %5, align 4, !tbaa !50
  br label %7, !llvm.loop !111

34:                                               ; preds = %17
  store i32 0, ptr %5, align 4, !tbaa !50
  br label %35

35:                                               ; preds = %84, %34
  %36 = load i32, ptr %5, align 4, !tbaa !50
  %37 = load ptr, ptr %2, align 8, !tbaa !3
  %38 = getelementptr inbounds nuw %struct.Llb_Mgr_t_, ptr %37, i32 0, i32 6
  %39 = load i32, ptr %38, align 4, !tbaa !56
  %40 = icmp slt i32 %36, %39
  br i1 %40, label %41, label %45

41:                                               ; preds = %35
  %42 = load ptr, ptr %2, align 8, !tbaa !3
  %43 = load i32, ptr %5, align 4, !tbaa !50
  %44 = call ptr @Llb_MgrVar(ptr noundef %42, i32 noundef %43)
  store ptr %44, ptr %4, align 8, !tbaa !8
  br label %45

45:                                               ; preds = %41, %35
  %46 = phi i1 [ false, %35 ], [ true, %41 ]
  br i1 %46, label %47, label %87

47:                                               ; preds = %45
  %48 = load ptr, ptr %4, align 8, !tbaa !8
  %49 = icmp eq ptr %48, null
  br i1 %49, label %50, label %51

50:                                               ; preds = %47
  br label %83

51:                                               ; preds = %47
  %52 = load ptr, ptr %4, align 8, !tbaa !8
  %53 = getelementptr inbounds nuw %struct.Llb_Var_t_, ptr %52, i32 0, i32 1
  store i32 0, ptr %53, align 4, !tbaa !66
  store i32 0, ptr %6, align 4, !tbaa !50
  br label %54

54:                                               ; preds = %79, %51
  %55 = load i32, ptr %6, align 4, !tbaa !50
  %56 = load ptr, ptr %4, align 8, !tbaa !8
  %57 = getelementptr inbounds nuw %struct.Llb_Var_t_, ptr %56, i32 0, i32 2
  %58 = load ptr, ptr %57, align 8, !tbaa !20
  %59 = call i32 @Vec_IntSize(ptr noundef %58)
  %60 = icmp slt i32 %55, %59
  br i1 %60, label %61, label %69

61:                                               ; preds = %54
  %62 = load ptr, ptr %2, align 8, !tbaa !3
  %63 = load ptr, ptr %4, align 8, !tbaa !8
  %64 = getelementptr inbounds nuw %struct.Llb_Var_t_, ptr %63, i32 0, i32 2
  %65 = load ptr, ptr %64, align 8, !tbaa !20
  %66 = load i32, ptr %6, align 4, !tbaa !50
  %67 = call i32 @Vec_IntEntry(ptr noundef %65, i32 noundef %66)
  %68 = call ptr @Llb_MgrPart(ptr noundef %62, i32 noundef %67)
  store ptr %68, ptr %3, align 8, !tbaa !24
  br label %69

69:                                               ; preds = %61, %54
  %70 = phi i1 [ false, %54 ], [ true, %61 ]
  br i1 %70, label %71, label %82

71:                                               ; preds = %69
  %72 = load ptr, ptr %3, align 8, !tbaa !24
  %73 = getelementptr inbounds nuw %struct.Llb_Prt_t_, ptr %72, i32 0, i32 1
  %74 = load i32, ptr %73, align 4, !tbaa !65
  %75 = load ptr, ptr %4, align 8, !tbaa !8
  %76 = getelementptr inbounds nuw %struct.Llb_Var_t_, ptr %75, i32 0, i32 1
  %77 = load i32, ptr %76, align 4, !tbaa !66
  %78 = add nsw i32 %77, %74
  store i32 %78, ptr %76, align 4, !tbaa !66
  br label %79

79:                                               ; preds = %71
  %80 = load i32, ptr %6, align 4, !tbaa !50
  %81 = add nsw i32 %80, 1
  store i32 %81, ptr %6, align 4, !tbaa !50
  br label %54, !llvm.loop !112

82:                                               ; preds = %69
  br label %83

83:                                               ; preds = %82, %50
  br label %84

84:                                               ; preds = %83
  %85 = load i32, ptr %5, align 4, !tbaa !50
  %86 = add nsw i32 %85, 1
  store i32 %86, ptr %5, align 4, !tbaa !50
  br label %35, !llvm.loop !113

87:                                               ; preds = %45
  call void @llvm.lifetime.end.p0(i64 4, ptr %6) #8
  call void @llvm.lifetime.end.p0(i64 4, ptr %5) #8
  call void @llvm.lifetime.end.p0(i64 8, ptr %4) #8
  call void @llvm.lifetime.end.p0(i64 8, ptr %3) #8
  ret void
}