; Function Attrs: nounwind uwtable
define void @Llb_Nonlin4RecomputeScores(ptr noundef readonly captures(none) %0) local_unnamed_addr #2 {
  %2 = getelementptr inbounds nuw i8, ptr %0, i64 40
  %3 = load i32, ptr %2, align 8, !tbaa !52
  %4 = icmp sgt i32 %3, 0
  br i1 %4, label %.lr.ph, label %.critedge.preheader

.lr.ph:                                           ; preds = %1
  %5 = getelementptr i8, ptr %0, i64 24
  br label %11

.critedge.preheader:                              ; preds = %21, %1
  %6 = getelementptr inbounds nuw i8, ptr %0, i64 44
  %7 = load i32, ptr %6, align 4, !tbaa !51
  %8 = icmp sgt i32 %7, 0
  br i1 %8, label %.lr.ph37, label %.critedge2

.lr.ph37:                                         ; preds = %.critedge.preheader
  %9 = getelementptr i8, ptr %0, i64 32
  %.val30 = load ptr, ptr %9, align 8, !tbaa !3
  %10 = getelementptr i8, ptr %0, i64 24
  %wide.trip.count45 = zext nneg i32 %7 to i64
  br label %25

11:                                               ; preds = %.lr.ph, %21
  %12 = phi i32 [ %3, %.lr.ph ], [ %22, %21 ]
  %indvars.iv = phi i64 [ 0, %.lr.ph ], [ %indvars.iv.next, %21 ]
  %.val32 = load ptr, ptr %5, align 8, !tbaa !21
  %13 = getelementptr inbounds nuw ptr, ptr %.val32, i64 %indvars.iv
  %14 = load ptr, ptr %13, align 8, !tbaa !25
  %15 = icmp eq ptr %14, null
  br i1 %15, label %21, label %16

16:                                               ; preds = %11
  %17 = getelementptr inbounds nuw i8, ptr %14, i64 8
  %18 = load ptr, ptr %17, align 8, !tbaa !29
  %19 = tail call i32 @Cudd_DagSize(ptr noundef %18) #14
  %20 = getelementptr inbounds nuw i8, ptr %14, i64 4
  store i32 %19, ptr %20, align 4, !tbaa !58
  %.pre = load i32, ptr %2, align 8, !tbaa !52
  br label %21

21:                                               ; preds = %16, %11
  %22 = phi i32 [ %.pre, %16 ], [ %12, %11 ]
  %indvars.iv.next = add nuw nsw i64 %indvars.iv, 1
  %23 = sext i32 %22 to i64
  %24 = icmp slt i64 %indvars.iv.next, %23
  br i1 %24, label %11, label %.critedge.preheader, !llvm.loop !101

25:                                               ; preds = %.lr.ph37, %.critedge4
  %indvars.iv42 = phi i64 [ 0, %.lr.ph37 ], [ %indvars.iv.next43, %.critedge4 ]
  %26 = getelementptr inbounds nuw ptr, ptr %.val30, i64 %indvars.iv42
  %27 = load ptr, ptr %26, align 8, !tbaa !16
  %28 = icmp eq ptr %27, null
  br i1 %28, label %.critedge4, label %29

29:                                               ; preds = %25
  %30 = getelementptr inbounds nuw i8, ptr %27, i64 4
  store i32 0, ptr %30, align 4, !tbaa !59
  %31 = getelementptr inbounds nuw i8, ptr %27, i64 8
  %32 = load ptr, ptr %31, align 8, !tbaa !18
  %33 = getelementptr i8, ptr %32, i64 4
  %.val = load i32, ptr %33, align 4, !tbaa !45
  %34 = icmp sgt i32 %.val, 0
  br i1 %34, label %.lr.ph35, label %.critedge4

.lr.ph35:                                         ; preds = %29
  %35 = getelementptr i8, ptr %32, i64 8
  %.val29 = load ptr, ptr %35, align 8, !tbaa !19
  %.val31 = load ptr, ptr %10, align 8, !tbaa !21
  %wide.trip.count = zext nneg i32 %.val to i64
  br label %36

36:                                               ; preds = %.lr.ph35, %36
  %indvars.iv39 = phi i64 [ 0, %.lr.ph35 ], [ %indvars.iv.next40, %36 ]
  %37 = phi i32 [ 0, %.lr.ph35 ], [ %45, %36 ]
  %38 = getelementptr inbounds nuw i32, ptr %.val29, i64 %indvars.iv39
  %39 = load i32, ptr %38, align 4, !tbaa !46
  %40 = sext i32 %39 to i64
  %41 = getelementptr inbounds ptr, ptr %.val31, i64 %40
  %42 = load ptr, ptr %41, align 8, !tbaa !25
  %43 = getelementptr inbounds nuw i8, ptr %42, i64 4
  %44 = load i32, ptr %43, align 4, !tbaa !58
  %45 = add nsw i32 %37, %44
  store i32 %45, ptr %30, align 4, !tbaa !59
  %indvars.iv.next40 = add nuw nsw i64 %indvars.iv39, 1
  %exitcond.not = icmp eq i64 %indvars.iv.next40, %wide.trip.count
  br i1 %exitcond.not, label %.critedge4, label %36, !llvm.loop !102

.critedge4:                                       ; preds = %36, %29, %25
  %indvars.iv.next43 = add nuw nsw i64 %indvars.iv42, 1
  %exitcond46.not = icmp eq i64 %indvars.iv.next43, %wide.trip.count45
  br i1 %exitcond46.not, label %.critedge2, label %25, !llvm.loop !103

.critedge2:                                       ; preds = %.critedge4, %.critedge.preheader
  ret void
}